target datalayout = "e-m:e-p270:32:32-p271:32:32-p272:64:64-i64:64-i128:128-f80:128-n8:16:32:64-S128"
target triple = "x86_64-pc-linux-gnu"

%class.LIR_Opr = type { i64 }
%class.LinearScan = type { ptr, ptr, ptr, ptr, %class.BlockList, i32, i8, i32, i32, i32, %class.GrowableArray.0, ptr, ptr, i8, %class.GrowableArray.3, %class.GrowableArray, %class.ResourceBitMap, %class.ResourceBitMap, %class.BitMap2D, %class.GrowableArray.6 }
%class.BlockList = type { %class.GrowableArray }
%class.GrowableArray.0 = type { %class.GrowableArrayWithAllocator.1, %class.GrowableArrayMetadata }
%class.GrowableArrayWithAllocator.1 = type { %class.GrowableArrayView.2 }
%class.GrowableArrayView.2 = type { %class.GrowableArrayBase, ptr }
%class.GrowableArrayBase = type { i32, i32 }
%class.GrowableArrayMetadata = type { i64 }
%class.GrowableArray.3 = type { %class.GrowableArrayWithAllocator.4, %class.GrowableArrayMetadata }
%class.GrowableArrayWithAllocator.4 = type { %class.GrowableArrayView.5 }
%class.GrowableArrayView.5 = type { %class.GrowableArrayBase, ptr }
%class.GrowableArray = type { %class.GrowableArrayWithAllocator, %class.GrowableArrayMetadata }
%class.GrowableArrayWithAllocator = type { %class.GrowableArrayView }
%class.GrowableArrayView = type { %class.GrowableArrayBase, ptr }
%class.ResourceBitMap = type { %class.GrowableBitMap }
%class.GrowableBitMap = type { %class.BitMap }
%class.BitMap = type { ptr, i64 }
%class.BitMap2D = type { %class.ResourceBitMap, i64 }
%class.GrowableArray.6 = type { %class.GrowableArrayWithAllocator.7, %class.GrowableArrayMetadata }
%class.GrowableArrayWithAllocator.7 = type { %class.GrowableArrayView.8 }
%class.GrowableArrayView.8 = type { %class.GrowableArrayBase, ptr }
%class.BlockBegin = type { %class.StateSplit, i32, i32, i32, i32, i32, i32, i32, i32, i32, %class.ResourceBitMap, %class.BlockList, %class.BlockList, ptr, ptr, %class.BlockList, ptr, i32, [4 x i8], %class.Label, ptr, %class.ResourceBitMap, %class.ResourceBitMap, %class.ResourceBitMap, %class.ResourceBitMap, %class.ResourceBitMap, ptr, i32, i32 }
%class.StateSplit = type { %class.Instruction, ptr }
%class.Instruction = type { ptr, i32, i32, i32, ptr, ptr, ptr, %class.LIR_Opr, i32, ptr, ptr, ptr, ptr }
%class.Label = type <{ i32, [4 x i32], i32, ptr, i8, [7 x i8] }>
%class.LIR_Op = type { ptr, %class.LIR_Opr, i16, i16, ptr, i32, i32, ptr }
%class.LIR_Op1 = type { %class.LIR_Op, %class.LIR_Opr, i8, i32 }

; Function Attrs: mustprogress nounwind uwtable
define linkonce_odr hidden noundef i64 @_ZNK7LIR_Opr5valueEv(ptr noundef nonnull align 8 dereferenceable(8) %0) #1 comdat align 2 {
  %2 = alloca ptr, align 8
  store ptr %0, ptr %2, align 8
  %3 = load ptr, ptr %2, align 8
  %4 = getelementptr inbounds %class.LIR_Opr, ptr %3, i32 0, i32 0
  %5 = load i64, ptr %4, align 8
  ret i64 %5
}

; Function Attrs: mustprogress nounwind uwtable
define linkonce_odr hidden noundef nonnull align 8 dereferenceable(8) ptr @_ZNK17GrowableArrayViewIP10BlockBeginE2atEi(ptr noundef nonnull align 8 dereferenceable(16) %0, i32 noundef %1) #1 comdat align 2 {
  %3 = alloca ptr, align 8
  %4 = alloca i32, align 4
  store ptr %0, ptr %3, align 8
  store i32 %1, ptr %4, align 4
  %5 = load ptr, ptr %3, align 8
  %6 = getelementptr inbounds %class.GrowableArrayView, ptr %5, i32 0, i32 1
  %7 = load ptr, ptr %6, align 8
  %8 = load i32, ptr %4, align 4
  %9 = sext i32 %8 to i64
  %10 = getelementptr inbounds ptr, ptr %7, i64 %9
  ret ptr %10
}

; Function Attrs: mustprogress nounwind uwtable
define linkonce_odr hidden noundef zeroext i1 @_ZNK7LIR_Opr15is_fpu_registerEv(ptr noundef nonnull align 8 dereferenceable(8) %0) #1 comdat align 2 {
  %2 = alloca ptr, align 8
  store ptr %0, ptr %2, align 8
  %3 = load ptr, ptr %2, align 8
  call void @_ZNK7LIR_Opr13validate_typeEv(ptr noundef nonnull align 8 dereferenceable(8) %3)
  %4 = call noundef zeroext i1 @_ZNK7LIR_Opr16check_value_maskEll(ptr noundef nonnull align 8 dereferenceable(8) %3, i64 noundef 7, i64 noundef 5)
  ret i1 %4
}

; Function Attrs: mustprogress nounwind uwtable
define linkonce_odr hidden noundef zeroext i1 @_ZNK7LIR_Opr15is_cpu_registerEv(ptr noundef nonnull align 8 dereferenceable(8) %0) #1 comdat align 2 {
  %2 = alloca ptr, align 8
  store ptr %0, ptr %2, align 8
  %3 = load ptr, ptr %2, align 8
  call void @_ZNK7LIR_Opr13validate_typeEv(ptr noundef nonnull align 8 dereferenceable(8) %3)
  %4 = call noundef zeroext i1 @_ZNK7LIR_Opr16check_value_maskEll(ptr noundef nonnull align 8 dereferenceable(8) %3, i64 noundef 7, i64 noundef 3)
  ret i1 %4
}

; Function Attrs: mustprogress nounwind uwtable
define linkonce_odr hidden noundef zeroext i1 @_ZNK7LIR_Opr16check_value_maskEll(ptr noundef nonnull align 8 dereferenceable(8) %0, i64 noundef %1, i64 noundef %2) #1 comdat align 2 {
  %4 = alloca ptr, align 8
  %5 = alloca i64, align 8
  %6 = alloca i64, align 8
  store ptr %0, ptr %4, align 8
  store i64 %1, ptr %5, align 8
  store i64 %2, ptr %6, align 8
  %7 = load ptr, ptr %4, align 8
  %8 = call noundef i64 @_ZNK7LIR_Opr5valueEv(ptr noundef nonnull align 8 dereferenceable(8) %7)
  %9 = load i64, ptr %5, align 8
  %10 = and i64 %8, %9
  %11 = load i64, ptr %6, align 8
  %12 = icmp eq i64 %10, %11
  ret i1 %12
}

; Function Attrs: mustprogress nounwind uwtable
define linkonce_odr hidden void @_ZNK7LIR_Opr13validate_typeEv(ptr noundef nonnull align 8 dereferenceable(8) %0) #1 comdat align 2 {
  %2 = alloca ptr, align 8
  store ptr %0, ptr %2, align 8
  ret void
}

; Function Attrs: mustprogress nounwind uwtable
define linkonce_odr hidden noundef i32 @_ZNK7LIR_Opr4dataEv(ptr noundef nonnull align 8 dereferenceable(8) %0) #1 comdat align 2 {
  %2 = alloca ptr, align 8
  store ptr %0, ptr %2, align 8
  %3 = load ptr, ptr %2, align 8
  %4 = call noundef i64 @_ZNK7LIR_Opr5valueEv(ptr noundef nonnull align 8 dereferenceable(8) %3)
  %5 = trunc i64 %4 to i32
  %6 = lshr i32 %5, 14
  ret i32 %6
}

; Function Attrs: mustprogress nounwind uwtable
define linkonce_odr hidden noundef zeroext i1 @_ZNK7LIR_Opr14is_virtual_fpuEv(ptr noundef nonnull align 8 dereferenceable(8) %0) #1 comdat align 2 {
  %2 = alloca ptr, align 8
  store ptr %0, ptr %2, align 8
  %3 = load ptr, ptr %2, align 8
  call void @_ZNK7LIR_Opr13validate_typeEv(ptr noundef nonnull align 8 dereferenceable(8) %3)
  %4 = call noundef zeroext i1 @_ZNK7LIR_Opr16check_value_maskEll(ptr noundef nonnull align 8 dereferenceable(8) %3, i64 noundef 4103, i64 noundef 4101)
  ret i1 %4
}

; Function Attrs: mustprogress nounwind uwtable
define linkonce_odr hidden noundef zeroext i1 @_ZNK7LIR_Opr14is_virtual_cpuEv(ptr noundef nonnull align 8 dereferenceable(8) %0) #1 comdat align 2 {
  %2 = alloca ptr, align 8
  store ptr %0, ptr %2, align 8
  %3 = load ptr, ptr %2, align 8
  call void @_ZNK7LIR_Opr13validate_typeEv(ptr noundef nonnull align 8 dereferenceable(8) %3)
  %4 = call noundef zeroext i1 @_ZNK7LIR_Opr16check_value_maskEll(ptr noundef nonnull align 8 dereferenceable(8) %3, i64 noundef 4103, i64 noundef 4099)
  ret i1 %4
}

; Function Attrs: mustprogress nounwind uwtable
define linkonce_odr hidden noundef zeroext i1 @_ZNK10BlockBegin6is_setENS_4FlagE(ptr noundef nonnull align 8 dereferenceable(408) %0, i32 noundef %1) #1 comdat align 2 {
  %3 = alloca ptr, align 8
  %4 = alloca i32, align 4
  store ptr %0, ptr %3, align 8
  store i32 %1, ptr %4, align 4
  %5 = load ptr, ptr %3, align 8
  %6 = getelementptr inbounds %class.BlockBegin, ptr %5, i32 0, i32 8
  %7 = load i32, ptr %6, align 4
  %8 = load i32, ptr %4, align 4
  %9 = and i32 %7, %8
  %10 = icmp ne i32 %9, 0
  ret i1 %10
}

; Function Attrs: mustprogress nounwind uwtable
define linkonce_odr hidden noundef ptr @_ZNK10LinearScan19block_of_op_with_idEi(ptr noundef nonnull align 8 dereferenceable(256) %0, i32 noundef %1) #1 comdat align 2 {
  %3 = alloca ptr, align 8
  %4 = alloca i32, align 4
  store ptr %0, ptr %3, align 8
  store i32 %1, ptr %4, align 4
  %5 = load ptr, ptr %3, align 8
  %6 = getelementptr inbounds %class.LinearScan, ptr %5, i32 0, i32 15
  %7 = load i32, ptr %4, align 4
  %8 = ashr i32 %7, 1
  %9 = call noundef nonnull align 8 dereferenceable(8) ptr @_ZNK17GrowableArrayViewIP10BlockBeginE2atEi(ptr noundef nonnull align 8 dereferenceable(16) %6, i32 noundef %8)
  %10 = load ptr, ptr %9, align 8
  ret ptr %10
}

; Function Attrs: mustprogress nounwind uwtable
define linkonce_odr hidden noundef i32 @_ZNK6LIR_Op2idEv(ptr noundef nonnull align 8 dereferenceable(48) %0) #1 comdat align 2 {
  %2 = alloca ptr, align 8
  store ptr %0, ptr %2, align 8
  %3 = load ptr, ptr %2, align 8
  %4 = getelementptr inbounds %class.LIR_Op, ptr %3, i32 0, i32 5
  %5 = load i32, ptr %4, align 8
  ret i32 %5
}

; Function Attrs: mustprogress nounwind uwtable
define linkonce_odr hidden noundef zeroext i1 @_ZNK7LIR_Opr11is_registerEv(ptr noundef nonnull align 8 dereferenceable(8) %0) #1 comdat align 2 {
  %2 = alloca ptr, align 8
  store ptr %0, ptr %2, align 8
  %3 = load ptr, ptr %2, align 8
  %4 = call noundef zeroext i1 @_ZNK7LIR_Opr15is_cpu_registerEv(ptr noundef nonnull align 8 dereferenceable(8) %3)
  br i1 %4, label %7, label %5

5:                                                ; preds = %1
  %6 = call noundef zeroext i1 @_ZNK7LIR_Opr15is_fpu_registerEv(ptr noundef nonnull align 8 dereferenceable(8) %3)
  br label %7

7:                                                ; preds = %5, %1
  %8 = phi i1 [ true, %1 ], [ %6, %5 ]
  ret i1 %8
}

; Function Attrs: mustprogress nounwind uwtable
define linkonce_odr hidden noundef zeroext i1 @_ZNK7LIR_Opr8is_stackEv(ptr noundef nonnull align 8 dereferenceable(8) %0) #1 comdat align 2 {
  %2 = alloca ptr, align 8
  store ptr %0, ptr %2, align 8
  %3 = load ptr, ptr %2, align 8
  call void @_ZNK7LIR_Opr13validate_typeEv(ptr noundef nonnull align 8 dereferenceable(8) %3)
  %4 = call noundef zeroext i1 @_ZNK7LIR_Opr16check_value_maskEll(ptr noundef nonnull align 8 dereferenceable(8) %3, i64 noundef 7, i64 noundef 1)
  ret i1 %4
}

; Function Attrs: mustprogress nounwind uwtable
define linkonce_odr hidden i64 @_ZNK7LIR_Op16in_oprEv(ptr noundef nonnull align 8 dereferenceable(64) %0) #1 comdat align 2 {
  %2 = alloca %class.LIR_Opr, align 8
  %3 = alloca ptr, align 8
  store ptr %0, ptr %3, align 8
  %4 = load ptr, ptr %3, align 8
  %5 = getelementptr inbounds %class.LIR_Op1, ptr %4, i32 0, i32 1
  call void @llvm.memcpy.p0.p0.i64(ptr align 8 %2, ptr align 8 %5, i64 8, i1 false)
  %6 = getelementptr inbounds %class.LIR_Opr, ptr %2, i32 0, i32 0
  %7 = load i64, ptr %6, align 8
  ret i64 %7
}

; Function Attrs: mustprogress nounwind uwtable
define linkonce_odr hidden noundef i32 @_ZNK7LIR_Opr11vreg_numberEv(ptr noundef nonnull align 8 dereferenceable(8) %0) #1 comdat align 2 {
  %2 = alloca ptr, align 8
  store ptr %0, ptr %2, align 8
  %3 = load ptr, ptr %2, align 8
  %4 = call noundef i32 @_ZNK7LIR_Opr4dataEv(ptr noundef nonnull align 8 dereferenceable(8) %3)
  ret i32 %4
}

; Function Attrs: mustprogress nounwind uwtable
define linkonce_odr hidden noundef ptr @_ZNK10LinearScan3genEv(ptr noundef nonnull align 8 dereferenceable(256) %0) #1 comdat align 2 {
  %2 = alloca ptr, align 8
  store ptr %0, ptr %2, align 8
  %3 = load ptr, ptr %2, align 8
  %4 = getelementptr inbounds %class.LinearScan, ptr %3, i32 0, i32 2
  %5 = load ptr, ptr %4, align 8
  ret ptr %5
}

; Function Attrs: mustprogress nounwind uwtable
define linkonce_odr hidden noundef zeroext i1 @_ZNK7LIR_Opr10is_virtualEv(ptr noundef nonnull align 8 dereferenceable(8) %0) #1 comdat align 2 {
  %2 = alloca ptr, align 8
  store ptr %0, ptr %2, align 8
  %3 = load ptr, ptr %2, align 8
  %4 = call noundef zeroext i1 @_ZNK7LIR_Opr14is_virtual_cpuEv(ptr noundef nonnull align 8 dereferenceable(8) %3)
  br i1 %4, label %7, label %5

5:                                                ; preds = %1
  %6 = call noundef zeroext i1 @_ZNK7LIR_Opr14is_virtual_fpuEv(ptr noundef nonnull align 8 dereferenceable(8) %3)
  br label %7

7:                                                ; preds = %5, %1
  %8 = phi i1 [ true, %1 ], [ %6, %5 ]
  ret i1 %8
}

; Function Attrs: mustprogress nounwind uwtable
define linkonce_odr hidden noundef ptr @_ZN7LIR_OprptEv(ptr noundef nonnull align 8 dereferenceable(8) %0) #1 comdat align 2 {
  %2 = alloca ptr, align 8
  store ptr %0, ptr %2, align 8
  %3 = load ptr, ptr %2, align 8
  ret ptr %3
}

; Function Attrs: mustprogress nounwind uwtable
define linkonce_odr hidden i64 @_ZNK6LIR_Op10result_oprEv(ptr noundef nonnull align 8 dereferenceable(48) %0) #1 comdat align 2 {
  %2 = alloca %class.LIR_Opr, align 8
  %3 = alloca ptr, align 8
  store ptr %0, ptr %3, align 8
  %4 = load ptr, ptr %3, align 8
  %5 = getelementptr inbounds %class.LIR_Op, ptr %4, i32 0, i32 1
  call void @llvm.memcpy.p0.p0.i64(ptr align 8 %2, ptr align 8 %5, i64 8, i1 false)
  %6 = getelementptr inbounds %class.LIR_Opr, ptr %2, i32 0, i32 0
  %7 = load i64, ptr %6, align 8
  ret i64 %7
}

; Function Attrs: mustprogress nounwind uwtable
define linkonce_odr hidden noundef i32 @_ZNK6LIR_Op4codeEv(ptr noundef nonnull align 8 dereferenceable(48) %0) #1 comdat align 2 {
  %2 = alloca ptr, align 8
  store ptr %0, ptr %2, align 8
  %3 = load ptr, ptr %2, align 8
  %4 = getelementptr inbounds %class.LIR_Op, ptr %3, i32 0, i32 2
  %5 = load i16, ptr %4, align 8
  %6 = zext i16 %5 to i32
  ret i32 %6
}

; Function Attrs: mustprogress nounwind uwtable
define hidden noundef i32 @_ZN10LinearScan26use_kind_of_output_operandEP6LIR_Op7LIR_Opr(ptr noundef nonnull align 8 dereferenceable(256) %0, ptr noundef %1, i64 %2) #1 align 2 {
  %4 = alloca i32, align 4
  %5 = alloca %class.LIR_Opr, align 8
  %6 = alloca ptr, align 8
  %7 = alloca ptr, align 8
  %8 = alloca ptr, align 8
  %9 = alloca %class.LIR_Opr, align 8
  %10 = alloca i8, align 1
  %11 = alloca %class.LIR_Opr, align 8
  %12 = alloca %class.LIR_Opr, align 8
  %13 = alloca %class.LIR_Opr, align 8
  %14 = getelementptr inbounds %class.LIR_Opr, ptr %5, i32 0, i32 0
  store i64 %2, ptr %14, align 8
  store ptr %0, ptr %6, align 8
  store ptr %1, ptr %7, align 8
  %15 = load ptr, ptr %6, align 8
  %16 = load ptr, ptr %7, align 8
  %17 = call noundef i32 @_ZNK6LIR_Op4codeEv(ptr noundef nonnull align 8 dereferenceable(48) %16)
  %18 = icmp eq i32 %17, 27
  br i1 %18, label %19, label %68

19:                                               ; preds = %3
  %20 = load ptr, ptr %7, align 8
  store ptr %20, ptr %8, align 8
  %21 = load ptr, ptr %8, align 8
  %22 = call i64 @_ZNK6LIR_Op10result_oprEv(ptr noundef nonnull align 8 dereferenceable(48) %21)
  %23 = getelementptr inbounds %class.LIR_Opr, ptr %9, i32 0, i32 0
  store i64 %22, ptr %23, align 8
  %24 = call noundef ptr @_ZN7LIR_OprptEv(ptr noundef nonnull align 8 dereferenceable(8) %9)
  %25 = call noundef zeroext i1 @_ZNK7LIR_Opr10is_virtualEv(ptr noundef nonnull align 8 dereferenceable(8) %24)
  br i1 %25, label %26, label %31

26:                                               ; preds = %19
  %27 = call noundef ptr @_ZNK10LinearScan3genEv(ptr noundef nonnull align 8 dereferenceable(256) %15)
  %28 = call noundef ptr @_ZN7LIR_OprptEv(ptr noundef nonnull align 8 dereferenceable(8) %9)
  %29 = call noundef i32 @_ZNK7LIR_Opr11vreg_numberEv(ptr noundef nonnull align 8 dereferenceable(8) %28)
  %30 = call noundef zeroext i1 @_ZN12LIRGenerator16is_vreg_flag_setEiNS_8VregFlagE(ptr noundef nonnull align 8 dereferenceable(232) %27, i32 noundef %29, i32 noundef 0)
  br label %31

31:                                               ; preds = %26, %19
  %32 = phi i1 [ false, %19 ], [ %30, %26 ]
  %33 = zext i1 %32 to i8
  store i8 %33, ptr %10, align 1
  %34 = load i8, ptr %10, align 1
  %35 = trunc i8 %34 to i1
  br i1 %35, label %36, label %37

36:                                               ; preds = %31
  store i32 0, ptr %4, align 4
  br label %78

37:                                               ; preds = %31
  %38 = load ptr, ptr %8, align 8
  %39 = call i64 @_ZNK7LIR_Op16in_oprEv(ptr noundef nonnull align 8 dereferenceable(64) %38)
  %40 = getelementptr inbounds %class.LIR_Opr, ptr %11, i32 0, i32 0
  store i64 %39, ptr %40, align 8
  %41 = call noundef ptr @_ZN7LIR_OprptEv(ptr noundef nonnull align 8 dereferenceable(8) %11)
  %42 = call noundef zeroext i1 @_ZNK7LIR_Opr8is_stackEv(ptr noundef nonnull align 8 dereferenceable(8) %41)
  br i1 %42, label %43, label %44

43:                                               ; preds = %37
  store i32 0, ptr %4, align 4
  br label %78

44:                                               ; preds = %37
  %45 = load ptr, ptr %8, align 8
  %46 = call i64 @_ZNK7LIR_Op16in_oprEv(ptr noundef nonnull align 8 dereferenceable(64) %45)
  %47 = getelementptr inbounds %class.LIR_Opr, ptr %12, i32 0, i32 0
  store i64 %46, ptr %47, align 8
  %48 = call noundef ptr @_ZN7LIR_OprptEv(ptr noundef nonnull align 8 dereferenceable(8) %12)
  %49 = call noundef zeroext i1 @_ZNK7LIR_Opr11is_registerEv(ptr noundef nonnull align 8 dereferenceable(8) %48)
  br i1 %49, label %50, label %56

50:                                               ; preds = %44
  %51 = load ptr, ptr %8, align 8
  %52 = call i64 @_ZNK6LIR_Op10result_oprEv(ptr noundef nonnull align 8 dereferenceable(48) %51)
  %53 = getelementptr inbounds %class.LIR_Opr, ptr %13, i32 0, i32 0
  store i64 %52, ptr %53, align 8
  %54 = call noundef ptr @_ZN7LIR_OprptEv(ptr noundef nonnull align 8 dereferenceable(8) %13)
  %55 = call noundef zeroext i1 @_ZNK7LIR_Opr11is_registerEv(ptr noundef nonnull align 8 dereferenceable(8) %54)
  br label %56

56:                                               ; preds = %50, %44
  %57 = phi i1 [ false, %44 ], [ %55, %50 ]
  br i1 %57, label %58, label %65

58:                                               ; preds = %56
  %59 = load ptr, ptr %7, align 8
  %60 = call noundef i32 @_ZNK6LIR_Op2idEv(ptr noundef nonnull align 8 dereferenceable(48) %59)
  %61 = call noundef ptr @_ZNK10LinearScan19block_of_op_with_idEi(ptr noundef nonnull align 8 dereferenceable(256) %15, i32 noundef %60)
  %62 = call noundef zeroext i1 @_ZNK10BlockBegin6is_setENS_4FlagE(ptr noundef nonnull align 8 dereferenceable(408) %61, i32 noundef 2)
  br i1 %62, label %63, label %64

63:                                               ; preds = %58
  store i32 2, ptr %4, align 4
  br label %78

64:                                               ; preds = %58
  br label %65

65:                                               ; preds = %64, %56
  br label %66

66:                                               ; preds = %65
  br label %67

67:                                               ; preds = %66
  br label %68

68:                                               ; preds = %67, %3
  %69 = call noundef ptr @_ZN7LIR_OprptEv(ptr noundef nonnull align 8 dereferenceable(8) %5)
  %70 = call noundef zeroext i1 @_ZNK7LIR_Opr10is_virtualEv(ptr noundef nonnull align 8 dereferenceable(8) %69)
  br i1 %70, label %71, label %77

71:                                               ; preds = %68
  %72 = call noundef ptr @_ZNK10LinearScan3genEv(ptr noundef nonnull align 8 dereferenceable(256) %15)
  %73 = call noundef ptr @_ZN7LIR_OprptEv(ptr noundef nonnull align 8 dereferenceable(8) %5)
  %74 = call noundef i32 @_ZNK7LIR_Opr11vreg_numberEv(ptr noundef nonnull align 8 dereferenceable(8) %73)
  %75 = call noundef zeroext i1 @_ZN12LIRGenerator16is_vreg_flag_setEiNS_8VregFlagE(ptr noundef nonnull align 8 dereferenceable(232) %72, i32 noundef %74, i32 noundef 0)
  br i1 %75, label %76, label %77

76:                                               ; preds = %71
  store i32 0, ptr %4, align 4
  br label %78

77:                                               ; preds = %71, %68
  store i32 3, ptr %4, align 4
  br label %78

78:                                               ; preds = %77, %76, %63, %43, %36
  %79 = load i32, ptr %4, align 4
  ret i32 %79
}