; Function Attrs: mustprogress nounwind uwtable
define hidden noundef range(i32 0, 4) i32 @_ZN10LinearScan26use_kind_of_output_operandEP6LIR_Op7LIR_Opr(ptr nocapture noundef nonnull readonly align 8 dereferenceable(256) %0, ptr nocapture noundef readonly %1, i64 %2) local_unnamed_addr #0 align 2 {
  %4 = getelementptr inbounds i8, ptr %1, i64 16
  %5 = load i16, ptr %4, align 8
  %6 = icmp eq i16 %5, 27
  br i1 %6, label %7, label %.critedge

7:                                                ; preds = %3
  %8 = getelementptr inbounds i8, ptr %1, i64 8
  %.sroa.0.0.copyload.i = load i64, ptr %8, align 8
  %9 = and i64 %.sroa.0.0.copyload.i, 4103
  switch i64 %9, label %.critedge10 [
    i64 4101, label %10
    i64 4099, label %10
  ]

10:                                               ; preds = %7, %7
  %11 = getelementptr inbounds i8, ptr %0, i64 16
  %12 = load ptr, ptr %11, align 8
  %13 = trunc i64 %.sroa.0.0.copyload.i to i32
  %14 = lshr i32 %13, 14
  %15 = tail call noundef zeroext i1 @_ZN12LIRGenerator16is_vreg_flag_setEiNS_8VregFlagE(ptr noundef nonnull align 8 dereferenceable(232) %12, i32 noundef %14, i32 noundef 0) #22
  br i1 %15, label %40, label %.critedge10

.critedge10:                                      ; preds = %7, %10
  %16 = getelementptr inbounds i8, ptr %1, i64 48
  %.sroa.0.0.copyload.i11 = load i64, ptr %16, align 8
  %17 = and i64 %.sroa.0.0.copyload.i11, 7
  switch i64 %17, label %.critedge [
    i64 1, label %40
    i64 5, label %18
    i64 3, label %18
  ]

18:                                               ; preds = %.critedge10, %.critedge10
  %.sroa.0.0.copyload.i14 = load i64, ptr %8, align 8
  %19 = and i64 %.sroa.0.0.copyload.i14, 7
  switch i64 %19, label %.critedge [
    i64 5, label %20
    i64 3, label %20
  ]

20:                                               ; preds = %18, %18
  %21 = getelementptr inbounds i8, ptr %1, i64 32
  %22 = load i32, ptr %21, align 8
  %23 = ashr i32 %22, 1
  %24 = getelementptr inbounds i8, ptr %0, i64 160
  %25 = load ptr, ptr %24, align 8
  %26 = sext i32 %23 to i64
  %27 = getelementptr inbounds ptr, ptr %25, i64 %26
  %28 = load ptr, ptr %27, align 8
  %29 = getelementptr inbounds i8, ptr %28, i64 132
  %30 = load i32, ptr %29, align 4
  %31 = and i32 %30, 2
  %.not = icmp eq i32 %31, 0
  br i1 %.not, label %.critedge, label %40

.critedge:                                        ; preds = %.critedge10, %18, %20, %3
  %32 = and i64 %2, 4103
  switch i64 %32, label %39 [
    i64 4101, label %33
    i64 4099, label %33
  ]

33:                                               ; preds = %.critedge, %.critedge
  %34 = getelementptr inbounds i8, ptr %0, i64 16
  %35 = load ptr, ptr %34, align 8
  %36 = trunc i64 %2 to i32
  %37 = lshr i32 %36, 14
  %38 = tail call noundef zeroext i1 @_ZN12LIRGenerator16is_vreg_flag_setEiNS_8VregFlagE(ptr noundef nonnull align 8 dereferenceable(232) %35, i32 noundef %37, i32 noundef 0) #22
  br i1 %38, label %40, label %39

39:                                               ; preds = %.critedge, %33
  br label %40

40:                                               ; preds = %.critedge10, %33, %20, %10, %39
  %.0 = phi i32 [ 3, %39 ], [ 0, %10 ], [ 0, %.critedge10 ], [ 2, %20 ], [ 0, %33 ]
  ret i32 %.0
}